; Function Attrs: nounwind uwtable
define hidden range(i32 -2147483648, 2147469952) i32 @mbedtls_dhm_set_group(ptr noundef %0, ptr noundef %1, ptr noundef %2) local_unnamed_addr #2 {
  %4 = tail call i32 @mbedtls_mpi_copy(ptr noundef %0, ptr noundef %1) #10
  %.not = icmp eq i32 %4, 0
  br i1 %.not, label %5, label %8

5:                                                ; preds = %3
  %6 = getelementptr inbounds nuw i8, ptr %0, i64 16
  %7 = tail call i32 @mbedtls_mpi_copy(ptr noundef nonnull %6, ptr noundef %2) #10
  %.not8 = icmp eq i32 %7, 0
  br i1 %.not8, label %10, label %8

8:                                                ; preds = %5, %3
  %.0 = phi i32 [ %4, %3 ], [ %7, %5 ]
  %9 = add nsw i32 %.0, -13696
  br label %10

10:                                               ; preds = %5, %8
  %.05 = phi i32 [ %9, %8 ], [ 0, %5 ]
  ret i32 %.05
}